; Function Attrs: mustprogress nounwind uwtable
define hidden void @_ZN15ClassLoaderData10methods_doEPFvP6MethodE(ptr noundef nonnull align 8 dereferenceable(160) %0, ptr noundef %1) local_unnamed_addr #0 align 2 {
  %3 = getelementptr inbounds i8, ptr %0, i64 56
  %4 = load volatile ptr, ptr %3, align 8
  tail call void asm sideeffect "", "~{memory},~{dirflag},~{fpsr},~{flags}"() #16, !srcloc !10
  %.not8 = icmp eq ptr %4, null
  br i1 %.not8, label %._crit_edge, label %.lr.ph

.lr.ph:                                           ; preds = %2, %12
  %.09 = phi ptr [ %14, %12 ], [ %4, %2 ]
  %5 = getelementptr inbounds i8, ptr %.09, i64 12
  %6 = load i32, ptr %5, align 4
  %7 = icmp slt i32 %6, 5
  br i1 %7, label %8, label %12

8:                                                ; preds = %.lr.ph
  %9 = getelementptr inbounds i8, ptr %.09, i64 305
  %10 = load volatile i8, ptr %9, align 1
  %.not7 = icmp eq i8 %10, 0
  br i1 %.not7, label %12, label %11

11:                                               ; preds = %8
  tail call void @_ZN13InstanceKlass10methods_doEPFvP6MethodE(ptr noundef nonnull align 8 dereferenceable(464) %.09, ptr noundef %1) #16
  br label %12

12:                                               ; preds = %.lr.ph, %8, %11
  %13 = getelementptr inbounds i8, ptr %.09, i64 144
  %14 = load ptr, ptr %13, align 8
  %.not = icmp eq ptr %14, null
  br i1 %.not, label %._crit_edge, label %.lr.ph, !llvm.loop !21

._crit_edge:                                      ; preds = %12, %2
  ret void
}